target datalayout = "e-m:e-p270:32:32-p271:32:32-p272:64:64-i64:64-i128:128-f80:128-n8:16:32:64-S128"
target triple = "x86_64-pc-linux-gnu"

%struct.RAROpenArchiveDataEx = type <{ ptr, ptr, i32, i32, ptr, i32, i32, i32, i32, ptr, i64, i32, ptr, [25 x i32] }>
%struct.RAROpenArchiveData = type <{ ptr, i32, i32, ptr, i32, i32, i32 }>

; Function Attrs: mustprogress uwtable
define ptr @RAROpenArchive(ptr noundef %0) #0 {
  %2 = alloca ptr, align 8
  %3 = alloca %struct.RAROpenArchiveDataEx, align 1
  %4 = alloca ptr, align 8
  store ptr %0, ptr %2, align 8
  call void @llvm.memset.p0.i64(ptr align 1 %3, i8 0, i64 176, i1 false)
  %5 = load ptr, ptr %2, align 8
  %6 = getelementptr inbounds %struct.RAROpenArchiveData, ptr %5, i32 0, i32 0
  %7 = load ptr, ptr %6, align 1
  %8 = getelementptr inbounds %struct.RAROpenArchiveDataEx, ptr %3, i32 0, i32 0
  store ptr %7, ptr %8, align 1
  %9 = load ptr, ptr %2, align 8
  %10 = getelementptr inbounds %struct.RAROpenArchiveData, ptr %9, i32 0, i32 1
  %11 = load i32, ptr %10, align 1
  %12 = getelementptr inbounds %struct.RAROpenArchiveDataEx, ptr %3, i32 0, i32 2
  store i32 %11, ptr %12, align 1
  %13 = load ptr, ptr %2, align 8
  %14 = getelementptr inbounds %struct.RAROpenArchiveData, ptr %13, i32 0, i32 3
  %15 = load ptr, ptr %14, align 1
  %16 = getelementptr inbounds %struct.RAROpenArchiveDataEx, ptr %3, i32 0, i32 4
  store ptr %15, ptr %16, align 1
  %17 = load ptr, ptr %2, align 8
  %18 = getelementptr inbounds %struct.RAROpenArchiveData, ptr %17, i32 0, i32 4
  %19 = load i32, ptr %18, align 1
  %20 = getelementptr inbounds %struct.RAROpenArchiveDataEx, ptr %3, i32 0, i32 5
  store i32 %19, ptr %20, align 1
  %21 = call ptr @RAROpenArchiveEx(ptr noundef %3)
  store ptr %21, ptr %4, align 8
  %22 = getelementptr inbounds %struct.RAROpenArchiveDataEx, ptr %3, i32 0, i32 3
  %23 = load i32, ptr %22, align 1
  %24 = load ptr, ptr %2, align 8
  %25 = getelementptr inbounds %struct.RAROpenArchiveData, ptr %24, i32 0, i32 2
  store i32 %23, ptr %25, align 1
  %26 = getelementptr inbounds %struct.RAROpenArchiveDataEx, ptr %3, i32 0, i32 6
  %27 = load i32, ptr %26, align 1
  %28 = load ptr, ptr %2, align 8
  %29 = getelementptr inbounds %struct.RAROpenArchiveData, ptr %28, i32 0, i32 5
  store i32 %27, ptr %29, align 1
  %30 = getelementptr inbounds %struct.RAROpenArchiveDataEx, ptr %3, i32 0, i32 7
  %31 = load i32, ptr %30, align 1
  %32 = load ptr, ptr %2, align 8
  %33 = getelementptr inbounds %struct.RAROpenArchiveData, ptr %32, i32 0, i32 6
  store i32 %31, ptr %33, align 1
  %34 = load ptr, ptr %4, align 8
  ret ptr %34
}