; Function Attrs: mustprogress uwtable
define noundef ptr @RAROpenArchive(ptr noundef captures(none) initializes((12, 16), (28, 36)) %0) local_unnamed_addr #0 {
  %2 = alloca %struct.RAROpenArchiveDataEx, align 8
  %3 = getelementptr inbounds nuw i8, ptr %2, i64 8
  call void @llvm.memset.p0.i64(ptr noundef nonnull align 8 dereferenceable(176) %3, i8 0, i64 168, i1 false)
  %4 = load ptr, ptr %0, align 1
  store ptr %4, ptr %2, align 8
  %5 = getelementptr inbounds nuw i8, ptr %0, i64 8
  %6 = load i32, ptr %5, align 1
  %7 = getelementptr inbounds nuw i8, ptr %2, i64 16
  store i32 %6, ptr %7, align 8
  %8 = getelementptr inbounds nuw i8, ptr %0, i64 16
  %9 = load ptr, ptr %8, align 1
  %10 = getelementptr inbounds nuw i8, ptr %2, i64 24
  store ptr %9, ptr %10, align 8
  %11 = getelementptr inbounds nuw i8, ptr %0, i64 24
  %12 = load i32, ptr %11, align 1
  %13 = getelementptr inbounds nuw i8, ptr %2, i64 32
  store i32 %12, ptr %13, align 8
  %14 = call ptr @RAROpenArchiveEx(ptr noundef nonnull %2)
  %15 = getelementptr inbounds nuw i8, ptr %2, i64 20
  %16 = load i32, ptr %15, align 4
  %17 = getelementptr inbounds nuw i8, ptr %0, i64 12
  store i32 %16, ptr %17, align 1
  %18 = getelementptr inbounds nuw i8, ptr %2, i64 36
  %19 = load i32, ptr %18, align 4
  %20 = getelementptr inbounds nuw i8, ptr %0, i64 28
  store i32 %19, ptr %20, align 1
  %21 = getelementptr inbounds nuw i8, ptr %2, i64 40
  %22 = load i32, ptr %21, align 8
  %23 = getelementptr inbounds nuw i8, ptr %0, i64 32
  store i32 %22, ptr %23, align 1
  ret ptr %14
}